target datalayout = "e-m:e-p270:32:32-p271:32:32-p272:64:64-i64:64-i128:128-f80:128-n8:16:32:64-S128"
target triple = "x86_64-pc-linux-gnu"

@H5O_init_g = external global i8, align 1
@H5_libterm_g = external global i8, align 1
@.str.10 = private unnamed_addr constant [21 x i8] c"%Y-%m-%d %H:%M:%S %Z\00", align 1
@.str.11 = private unnamed_addr constant [12 x i8] c"%*s%-*s %s\0A\00", align 1
@.str.12 = private unnamed_addr constant [1 x i8] zeroinitializer, align 1
@.str.13 = private unnamed_addr constant [6 x i8] c"Time:\00", align 1

; Function Attrs: nounwind uwtable
define internal i32 @H5O__mtime_debug(ptr noundef %0, ptr noundef %1, ptr noundef %2, i32 noundef %3, i32 noundef %4) #0 {
  %6 = alloca ptr, align 8
  %7 = alloca ptr, align 8
  %8 = alloca ptr, align 8
  %9 = alloca i32, align 4
  %10 = alloca i32, align 4
  %11 = alloca ptr, align 8
  %12 = alloca ptr, align 8
  %13 = alloca [128 x i8], align 16
  store ptr %0, ptr %6, align 8, !tbaa !3
  store ptr %1, ptr %7, align 8, !tbaa !20
  store ptr %2, ptr %8, align 8, !tbaa !42
  store i32 %3, ptr %9, align 4, !tbaa !10
  store i32 %4, ptr %10, align 4, !tbaa !10
  call void @llvm.lifetime.start.p0(i64 8, ptr %11) #7
  %14 = load ptr, ptr %7, align 8, !tbaa !20
  store ptr %14, ptr %11, align 8, !tbaa !18
  call void @llvm.lifetime.start.p0(i64 8, ptr %12) #7
  call void @llvm.lifetime.start.p0(i64 128, ptr %13) #7
  %15 = load i8, ptr @H5O_init_g, align 1, !tbaa !21, !range !23, !noundef !24
  %16 = trunc i8 %15 to i1
  br i1 %16, label %21, label %17

17:                                               ; preds = %5
  %18 = load i8, ptr @H5_libterm_g, align 1, !tbaa !21, !range !23, !noundef !24
  %19 = trunc i8 %18 to i1
  %20 = xor i1 %19, true
  br label %21

21:                                               ; preds = %17, %5
  %22 = phi i1 [ true, %5 ], [ %20, %17 ]
  %23 = xor i1 %22, true
  %24 = xor i1 %23, true
  %25 = zext i1 %24 to i32
  %26 = sext i32 %25 to i64
  %27 = call i64 @llvm.expect.i64(i64 %26, i64 1)
  %28 = icmp ne i64 %27, 0
  br i1 %28, label %29, label %40

29:                                               ; preds = %21
  %30 = load ptr, ptr %11, align 8, !tbaa !18
  %31 = call ptr @localtime(ptr noundef %30) #7
  store ptr %31, ptr %12, align 8, !tbaa !40
  %32 = getelementptr inbounds [128 x i8], ptr %13, i64 0, i64 0
  %33 = load ptr, ptr %12, align 8, !tbaa !40
  %34 = call i64 @strftime(ptr noundef %32, i64 noundef 128, ptr noundef @.str.10, ptr noundef %33) #7
  %35 = load ptr, ptr %8, align 8, !tbaa !42
  %36 = load i32, ptr %9, align 4, !tbaa !10
  %37 = load i32, ptr %10, align 4, !tbaa !10
  %38 = getelementptr inbounds [128 x i8], ptr %13, i64 0, i64 0
  %39 = call i32 (ptr, ptr, ...) @fprintf(ptr noundef %35, ptr noundef @.str.11, i32 noundef %36, ptr noundef @.str.12, i32 noundef %37, ptr noundef @.str.13, ptr noundef %38) #7
  br label %40

40:                                               ; preds = %29, %21
  call void @llvm.lifetime.end.p0(i64 128, ptr %13) #7
  call void @llvm.lifetime.end.p0(i64 8, ptr %12) #7
  call void @llvm.lifetime.end.p0(i64 8, ptr %11) #7
  ret i32 0
}