; Function Attrs: nounwind uwtable
define internal noundef i32 @H5O__mtime_debug(ptr readnone captures(none) %0, ptr noundef %1, ptr noundef captures(none) %2, i32 noundef %3, i32 noundef %4) #0 {
  %6 = alloca [128 x i8], align 16
  call void @llvm.lifetime.start.p0(i64 128, ptr nonnull %6) #9
  %7 = load i8, ptr @H5O_init_g, align 1, !tbaa !3, !range !7, !noundef !8
  %8 = trunc nuw i8 %7 to i1
  %9 = load i8, ptr @H5_libterm_g, align 1, !range !7
  %10 = trunc nuw i8 %9 to i1
  %11 = xor i1 %10, true
  %12 = select i1 %8, i1 true, i1 %11
  br i1 %12, label %13, label %17, !prof !9

13:                                               ; preds = %5
  %14 = tail call ptr @localtime(ptr noundef %1) #9
  %15 = call i64 @strftime(ptr noundef nonnull %6, i64 noundef 128, ptr noundef nonnull @.str.10, ptr noundef %14) #9
  %16 = call i32 (ptr, ptr, ...) @fprintf(ptr noundef %2, ptr noundef nonnull @.str.11, i32 noundef %3, ptr noundef nonnull @.str.12, i32 noundef %4, ptr noundef nonnull @.str.13, ptr noundef nonnull %6) #9
  br label %17

17:                                               ; preds = %13, %5
  call void @llvm.lifetime.end.p0(i64 128, ptr nonnull %6) #9
  ret i32 0
}